(lp1
(lp2
I12
aI0
aI0
aI0
aa(lp3
I28
aI0
aI0
aI0
aa(lp4
I11
aI0
aI0
aI0
aa(lp5
I21
aI0
aI0
aI0
aa(lp6
I9
aI0
aI0
aI0
aa(lp7
I10
aI0
aI0
aI0
aa(lp8
I8
aI0
aI0
aI0
aa(lp9
I11
aI0
aI0
aI0
aa(lp10
I10
aI0
aI0
aI0
aa(lp11
I12
aI0
aI0
aI0
aa(lp12
I10
aI0
aI0
aI0
aa(lp13
I16
aI0
aI0
aI0
aa(lp14
I16
aI0
aI0
aI0
aa(lp15
I15
aI0
aI0
aI0
aa(lp16
I16
aI0
aI0
aI0
aa(lp17
I14
aI0
aI0
aI0
aa(lp18
I18
aI0
aI0
aI0
aa(lp19
I17
aI0
aI0
aI0
aa(lp20
I20
aI0
aI0
aI0
aa(lp21
I22
aI0
aI0
aI0
aa(lp22
I11
aI0
aI0
aI0
aa(lp23
I21
aI0
aI0
aI0
aa(lp24
I13
aI0
aI0
aI0
aa(lp25
I20
aI0
aI0
aI0
aa(lp26
I22
aI0
aI0
aI0
aa(lp27
I15
aI0
aI0
aI0
aa(lp28
I27
aI0
aI0
aI0
aa(lp29
I16
aI0
aI0
aI0
aa(lp30
I14
aI0
aI0
aI0
aa(lp31
I14
aI0
aI0
aI0
aa(lp32
I25
aI0
aI0
aI0
aa(lp33
I16
aI0
aI0
aI0
aa(lp34
I12
aI0
aI0
aI0
aa(lp35
I5
aI0
aI0
aI0
aa(lp36
I16
aI0
aI0
aI0
aa(lp37
I11
aI0
aI0
aI0
aa(lp38
I17
aI0
aI0
aI0
aa(lp39
I15
aI0
aI0
aI0
aa(lp40
I20
aI0
aI0
aI0
aa(lp41
I14
aI0
aI0
aI0
aa(lp42
I15
aI0
aI0
aI0
aa(lp43
I17
aI0
aI0
aI0
aa(lp44
I16
aI0
aI0
aI0
aa(lp45
I16
aI0
aI0
aI0
aa(lp46
I15
aI0
aI0
aI0
aa(lp47
I21
aI0
aI0
aI0
aa(lp48
I10
aI0
aI0
aI0
aa(lp49
I9
aI0
aI0
aI0
aa(lp50
I13
aI0
aI0
aI0
aa(lp51
I9
aI0
aI0
aI0
aa(lp52
I43
aI0
aI0
aI0
aa(lp53
I11
aI0
aI0
aI0
aa(lp54
I23
aI0
aI0
aI0
aa(lp55
I14
aI0
aI0
aI0
aa(lp56
I11
aI0
aI0
aI0
aa(lp57
I29
aI0
aI0
aI0
aa(lp58
I8
aI0
aI0
aI0
aa(lp59
I30
aI0
aI0
aI0
aa(lp60
I14
aI0
aI0
aI0
aa(lp61
I7
aI0
aI0
aI0
aa(lp62
I10
aI0
aI0
aI0
aa(lp63
I19
aI0
aI0
aI0
aa(lp64
I10
aI0
aI0
aI0
aa.