(lp1
(lp2
I23
aI0
aI0
aI0
aa(lp3
I8
aI0
aI0
aI0
aa(lp4
I26
aI0
aI0
aI0
aa(lp5
I23
aI0
aI0
aI0
aa(lp6
I26
aI0
aI0
aI0
aa(lp7
I0
aI0
aI0
aI0
aa(lp8
I36
aI0
aI0
aI0
aa(lp9
I37
aI0
aI0
aI0
aa(lp10
I31
aI0
aI0
aI0
aa(lp11
I26
aI0
aI0
aI0
aa(lp12
I33
aI0
aI0
aI0
aa(lp13
I0
aI0
aI0
aI0
aa(lp14
I0
aI0
aI0
aI0
aa(lp15
I24
aI0
aI0
aI0
aa(lp16
I0
aI0
aI0
aI0
aa(lp17
I0
aI0
aI0
aI0
aa(lp18
I23
aI0
aI0
aI0
aa(lp19
I0
aI0
aI0
aI0
aa(lp20
I25
aI0
aI0
aI0
aa(lp21
I39
aI0
aI0
aI0
aa(lp22
I0
aI0
aI0
aI0
aa(lp23
I22
aI0
aI0
aI0
aa(lp24
I18
aI0
aI0
aI0
aa(lp25
I12
aI0
aI0
aI0
aa(lp26
I0
aI0
aI0
aI0
aa(lp27
I0
aI0
aI0
aI0
aa(lp28
I14
aI0
aI0
aI0
aa(lp29
I0
aI0
aI0
aI0
aa(lp30
I0
aI0
aI0
aI0
aa(lp31
I11
aI0
aI0
aI0
aa(lp32
I9
aI0
aI0
aI0
aa(lp33
I36
aI0
aI0
aI0
aa(lp34
I22
aI0
aI0
aI0
aa(lp35
I16
aI0
aI0
aI0
aa(lp36
I14
aI0
aI0
aI0
aa(lp37
I25
aI0
aI0
aI0
aa(lp38
I13
aI0
aI0
aI0
aa(lp39
I0
aI0
aI0
aI0
aa(lp40
I0
aI0
aI0
aI0
aa(lp41
I19
aI0
aI0
aI0
aa(lp42
I19
aI0
aI0
aI0
aa(lp43
I9
aI0
aI0
aI0
aa(lp44
I42
aI0
aI0
aI14
aa(lp45
I0
aI0
aI0
aI0
aa(lp46
I0
aI0
aI0
aI0
aa(lp47
I0
aI0
aI0
aI0
aa(lp48
I26
aI0
aI0
aI0
aa(lp49
I16
aI0
aI0
aI0
aa(lp50
I31
aI0
aI0
aI0
aa(lp51
I0
aI0
aI0
aI0
aa(lp52
I9
aI0
aI0
aI0
aa(lp53
I13
aI0
aI0
aI0
aa(lp54
I19
aI0
aI0
aI0
aa(lp55
I0
aI0
aI0
aI0
aa(lp56
I25
aI0
aI0
aI0
aa(lp57
I0
aI0
aI0
aI0
aa(lp58
I15
aI0
aI0
aI0
aa(lp59
I23
aI0
aI0
aI0
aa(lp60
I11
aI0
aI0
aI0
aa(lp61
I0
aI0
aI0
aI0
aa(lp62
I0
aI0
aI0
aI0
aa(lp63
I0
aI0
aI0
aI0
aa.