(lp1
(lp2
I16
aI0
aI0
aI0
aa(lp3
I16
aI0
aI0
aI0
aa(lp4
I16
aI0
aI0
aI0
aa(lp5
I24
aI0
aI0
aI0
aa(lp6
I30
aI0
aI0
aI0
aa(lp7
I27
aI0
aI0
aI0
aa(lp8
I30
aI0
aI0
aI0
aa(lp9
I21
aI0
aI0
aI0
aa(lp10
I23
aI0
aI0
aI0
aa(lp11
I14
aI0
aI0
aI0
aa(lp12
I20
aI0
aI0
aI0
aa(lp13
I27
aI0
aI0
aI0
aa(lp14
I18
aI0
aI0
aI0
aa(lp15
I17
aI0
aI0
aI0
aa(lp16
I17
aI0
aI0
aI0
aa(lp17
I37
aI0
aI0
aI0
aa(lp18
I28
aI0
aI0
aI0
aa(lp19
I10
aI0
aI0
aI0
aa(lp20
I21
aI0
aI0
aI0
aa(lp21
I18
aI0
aI0
aI0
aa(lp22
I15
aI0
aI0
aI0
aa(lp23
I18
aI0
aI0
aI0
aa(lp24
I18
aI0
aI0
aI0
aa(lp25
I15
aI0
aI0
aI0
aa(lp26
I18
aI0
aI0
aI0
aa(lp27
I16
aI0
aI0
aI0
aa(lp28
I21
aI0
aI0
aI0
aa(lp29
I20
aI0
aI0
aI0
aa(lp30
I18
aI0
aI0
aI0
aa(lp31
I22
aI0
aI0
aI0
aa(lp32
I22
aI0
aI0
aI0
aa(lp33
I24
aI0
aI0
aI0
aa(lp34
I19
aI0
aI0
aI0
aa(lp35
I22
aI0
aI0
aI0
aa(lp36
I23
aI0
aI0
aI0
aa(lp37
I16
aI0
aI0
aI0
aa(lp38
I16
aI0
aI0
aI0
aa(lp39
I24
aI0
aI0
aI0
aa(lp40
I18
aI0
aI0
aI0
aa(lp41
I24
aI0
aI0
aI0
aa(lp42
I26
aI0
aI0
aI0
aa(lp43
I8
aI0
aI0
aI0
aa(lp44
I14
aI0
aI0
aI0
aa(lp45
I35
aI0
aI0
aI0
aa(lp46
I19
aI0
aI0
aI0
aa(lp47
I25
aI0
aI0
aI0
aa(lp48
I23
aI0
aI0
aI0
aa(lp49
I21
aI0
aI0
aI0
aa(lp50
I25
aI0
aI0
aI0
aa(lp51
I23
aI0
aI0
aI0
aa(lp52
I30
aI0
aI0
aI0
aa(lp53
I20
aI0
aI0
aI0
aa(lp54
I32
aI0
aI0
aI0
aa(lp55
I22
aI0
aI0
aI0
aa(lp56
I41
aI0
aI0
aI0
aa(lp57
I18
aI0
aI0
aI0
aa(lp58
I18
aI0
aI0
aI0
aa(lp59
I33
aI0
aI0
aI0
aa(lp60
I21
aI0
aI0
aI0
aa(lp61
I19
aI0
aI0
aI0
aa(lp62
I13
aI0
aI0
aI0
aa(lp63
I32
aI0
aI0
aI0
aa(lp64
I28
aI0
aI0
aI0
aa(lp65
I16
aI0
aI0
aI0
aa(lp66
I17
aI0
aI0
aI0
aa(lp67
I21
aI0
aI0
aI0
aa(lp68
I28
aI0
aI0
aI0
aa(lp69
I10
aI0
aI0
aI0
aa(lp70
I20
aI0
aI0
aI0
aa(lp71
I9
aI0
aI0
aI0
aa(lp72
I30
aI0
aI0
aI0
aa(lp73
I24
aI0
aI0
aI0
aa(lp74
I15
aI0
aI0
aI0
aa(lp75
I19
aI0
aI0
aI0
aa(lp76
I20
aI0
aI0
aI0
aa(lp77
I27
aI0
aI0
aI0
aa(lp78
I26
aI0
aI0
aI0
aa(lp79
I21
aI0
aI0
aI0
aa(lp80
I22
aI0
aI0
aI0
aa(lp81
I28
aI0
aI0
aI0
aa(lp82
I17
aI0
aI0
aI0
aa(lp83
I13
aI0
aI0
aI0
aa(lp84
I16
aI0
aI0
aI0
aa(lp85
I27
aI0
aI0
aI0
aa(lp86
I26
aI0
aI0
aI0
aa(lp87
I25
aI0
aI0
aI0
aa(lp88
I27
aI0
aI0
aI0
aa(lp89
I28
aI0
aI0
aI0
aa(lp90
I12
aI0
aI0
aI0
aa(lp91
I29
aI0
aI0
aI0
aa(lp92
I16
aI0
aI0
aI0
aa(lp93
I19
aI0
aI0
aI0
aa(lp94
I17
aI0
aI0
aI0
aa(lp95
I13
aI0
aI0
aI0
aa(lp96
I25
aI0
aI0
aI0
aa(lp97
I49
aI0
aI0
aI0
aa(lp98
I16
aI0
aI0
aI0
aa(lp99
I24
aI0
aI0
aI0
aa(lp100
I11
aI0
aI0
aI0
aa(lp101
I34
aI0
aI0
aI0
aa(lp102
I31
aI0
aI0
aI0
aa(lp103
I19
aI0
aI0
aI0
aa(lp104
I16
aI0
aI0
aI0
aa(lp105
I37
aI0
aI0
aI0
aa(lp106
I33
aI0
aI0
aI0
aa(lp107
I9
aI0
aI0
aI0
aa(lp108
I36
aI0
aI0
aI0
aa(lp109
I20
aI0
aI0
aI0
aa(lp110
I18
aI0
aI0
aI0
aa(lp111
I34
aI0
aI0
aI0
aa(lp112
I18
aI0
aI0
aI0
aa(lp113
I19
aI0
aI0
aI0
aa(lp114
I12
aI0
aI0
aI0
aa(lp115
I27
aI0
aI0
aI0
aa(lp116
I16
aI0
aI0
aI0
aa(lp117
I18
aI0
aI0
aI0
aa(lp118
I14
aI0
aI0
aI0
aa(lp119
I21
aI0
aI0
aI0
aa(lp120
I23
aI0
aI0
aI0
aa(lp121
I22
aI0
aI0
aI0
aa(lp122
I13
aI0
aI0
aI0
aa(lp123
I12
aI0
aI0
aI0
aa(lp124
I14
aI0
aI0
aI0
aa(lp125
I21
aI0
aI0
aI0
aa(lp126
I17
aI0
aI0
aI0
aa.