(lp1
(lp2
I32
aI0
aI0
aI0
aa(lp3
I23
aI0
aI0
aI0
aa(lp4
I29
aI0
aI0
aI0
aa(lp5
I36
aI0
aI0
aI0
aa(lp6
I25
aI0
aI0
aI0
aa(lp7
I33
aI0
aI0
aI0
aa(lp8
I35
aI0
aI0
aI0
aa(lp9
I40
aI0
aI0
aI0
aa(lp10
I26
aI0
aI0
aI0
aa(lp11
I14
aI0
aI0
aI0
aa(lp12
I21
aI0
aI0
aI0
aa(lp13
I27
aI0
aI0
aI0
aa(lp14
I36
aI0
aI0
aI0
aa(lp15
I18
aI0
aI0
aI0
aa(lp16
I14
aI0
aI0
aI0
aa(lp17
I13
aI0
aI0
aI0
aa(lp18
I29
aI0
aI0
aI0
aa(lp19
I26
aI0
aI0
aI0
aa(lp20
I25
aI0
aI0
aI0
aa(lp21
I33
aI0
aI0
aI0
aa(lp22
I24
aI0
aI0
aI0
aa(lp23
I32
aI0
aI0
aI0
aa(lp24
I18
aI0
aI0
aI0
aa(lp25
I10
aI0
aI0
aI0
aa(lp26
I18
aI0
aI0
aI0
aa(lp27
I26
aI0
aI0
aI0
aa(lp28
I27
aI0
aI0
aI0
aa(lp29
I56
aI0
aI0
aI0
aa(lp30
I14
aI0
aI0
aI0
aa(lp31
I32
aI0
aI0
aI0
aa(lp32
I9
aI0
aI0
aI0
aa(lp33
I12
aI0
aI0
aI0
aa(lp34
I11
aI0
aI0
aI0
aa(lp35
I22
aI0
aI0
aI0
aa(lp36
I33
aI0
aI0
aI0
aa(lp37
I47
aI0
aI0
aI0
aa(lp38
I28
aI0
aI0
aI0
aa(lp39
I22
aI0
aI0
aI0
aa(lp40
I18
aI0
aI0
aI0
aa(lp41
I38
aI0
aI0
aI0
aa(lp42
I26
aI0
aI0
aI0
aa(lp43
I36
aI0
aI0
aI0
aa(lp44
I13
aI0
aI0
aI0
aa(lp45
I24
aI0
aI0
aI0
aa(lp46
I32
aI0
aI0
aI0
aa(lp47
I41
aI0
aI0
aI0
aa(lp48
I26
aI0
aI0
aI0
aa(lp49
I17
aI0
aI0
aI0
aa(lp50
I36
aI0
aI0
aI0
aa(lp51
I23
aI0
aI0
aI0
aa(lp52
I24
aI0
aI0
aI0
aa(lp53
I28
aI0
aI0
aI0
aa(lp54
I27
aI0
aI0
aI0
aa(lp55
I20
aI0
aI0
aI0
aa(lp56
I25
aI0
aI0
aI0
aa(lp57
I26
aI0
aI0
aI0
aa(lp58
I28
aI0
aI0
aI0
aa(lp59
I45
aI0
aI0
aI0
aa(lp60
I28
aI0
aI0
aI0
aa(lp61
I28
aI0
aI0
aI0
aa(lp62
I27
aI0
aI0
aI0
aa(lp63
I18
aI0
aI0
aI0
aa(lp64
I41
aI0
aI0
aI0
aa.