(lp1
(lp2
I7
aI0
aI0
aI0
aa(lp3
I24
aI0
aI0
aI0
aa(lp4
I17
aI0
aI0
aI0
aa(lp5
I21
aI0
aI0
aI0
aa(lp6
I24
aI0
aI0
aI0
aa(lp7
I19
aI0
aI0
aI0
aa(lp8
I18
aI0
aI0
aI0
aa(lp9
I21
aI0
aI0
aI0
aa(lp10
I29
aI0
aI0
aI0
aa(lp11
I14
aI0
aI0
aI0
aa(lp12
I25
aI0
aI0
aI0
aa(lp13
I30
aI0
aI0
aI0
aa(lp14
I32
aI0
aI0
aI0
aa(lp15
I22
aI0
aI0
aI0
aa(lp16
I37
aI0
aI0
aI0
aa(lp17
I14
aI0
aI0
aI0
aa(lp18
I17
aI0
aI0
aI0
aa(lp19
I19
aI0
aI0
aI0
aa(lp20
I18
aI0
aI0
aI0
aa(lp21
I12
aI0
aI0
aI0
aa(lp22
I18
aI0
aI0
aI0
aa(lp23
I14
aI0
aI0
aI0
aa(lp24
I37
aI0
aI0
aI0
aa(lp25
I25
aI0
aI0
aI0
aa(lp26
I23
aI0
aI0
aI0
aa(lp27
I18
aI0
aI0
aI0
aa(lp28
I7
aI0
aI0
aI0
aa(lp29
I18
aI0
aI0
aI0
aa(lp30
I23
aI0
aI0
aI0
aa(lp31
I18
aI0
aI0
aI0
aa(lp32
I25
aI0
aI0
aI0
aa(lp33
I22
aI0
aI0
aI0
aa(lp34
I19
aI0
aI0
aI0
aa(lp35
I29
aI0
aI0
aI0
aa(lp36
I22
aI0
aI0
aI0
aa(lp37
I26
aI0
aI0
aI0
aa(lp38
I12
aI0
aI0
aI0
aa(lp39
I18
aI0
aI0
aI0
aa(lp40
I14
aI0
aI0
aI0
aa(lp41
I33
aI0
aI0
aI0
aa(lp42
I43
aI0
aI0
aI0
aa(lp43
I58
aI0
aI0
aI0
aa(lp44
I5
aI0
aI0
aI0
aa(lp45
I33
aI0
aI0
aI2
aa(lp46
I5
aI0
aI0
aI0
aa(lp47
I36
aI0
aI0
aI0
aa(lp48
I18
aI0
aI0
aI0
aa(lp49
I36
aI0
aI0
aI0
aa(lp50
I30
aI0
aI0
aI0
aa(lp51
I21
aI0
aI0
aI0
aa(lp52
I36
aI0
aI0
aI0
aa(lp53
I13
aI0
aI0
aI0
aa(lp54
I12
aI0
aI0
aI0
aa(lp55
I23
aI0
aI0
aI0
aa(lp56
I25
aI0
aI0
aI0
aa(lp57
I9
aI0
aI0
aI0
aa(lp58
I31
aI0
aI0
aI0
aa(lp59
I48
aI0
aI0
aI0
aa(lp60
I22
aI0
aI0
aI0
aa(lp61
I14
aI0
aI0
aI0
aa(lp62
I13
aI0
aI0
aI0
aa(lp63
I20
aI0
aI0
aI0
aa(lp64
I22
aI0
aI0
aI0
aa.