(lp1
(lp2
I45
aI0
aI0
aI0
aa(lp3
I27
aI0
aI0
aI0
aa(lp4
I42
aI0
aI0
aI0
aa(lp5
I28
aI0
aI0
aI0
aa(lp6
I14
aI0
aI0
aI0
aa(lp7
I31
aI0
aI0
aI0
aa(lp8
I41
aI0
aI0
aI0
aa(lp9
I36
aI0
aI0
aI0
aa(lp10
I16
aI0
aI0
aI0
aa(lp11
I28
aI0
aI0
aI0
aa(lp12
I28
aI0
aI0
aI0
aa(lp13
I18
aI0
aI0
aI0
aa(lp14
I26
aI0
aI0
aI0
aa(lp15
I22
aI0
aI0
aI0
aa(lp16
I34
aI0
aI0
aI0
aa(lp17
I22
aI0
aI0
aI0
aa(lp18
I36
aI0
aI0
aI0
aa(lp19
I33
aI0
aI0
aI0
aa(lp20
I29
aI0
aI0
aI0
aa(lp21
I36
aI0
aI0
aI0
aa(lp22
I16
aI0
aI0
aI0
aa(lp23
I41
aI0
aI0
aI0
aa(lp24
I35
aI0
aI0
aI0
aa(lp25
I27
aI0
aI0
aI0
aa(lp26
I35
aI0
aI0
aI0
aa(lp27
I30
aI0
aI0
aI0
aa(lp28
I25
aI0
aI0
aI0
aa(lp29
I32
aI0
aI0
aI0
aa(lp30
I45
aI0
aI0
aI0
aa(lp31
I31
aI0
aI0
aI0
aa(lp32
I35
aI0
aI0
aI0
aa(lp33
I38
aI0
aI0
aI0
aa(lp34
I32
aI0
aI0
aI0
aa(lp35
I28
aI0
aI0
aI0
aa(lp36
I39
aI0
aI0
aI0
aa(lp37
I39
aI0
aI0
aI0
aa(lp38
I31
aI0
aI0
aI0
aa(lp39
I32
aI0
aI0
aI0
aa(lp40
I27
aI0
aI0
aI0
aa(lp41
I26
aI0
aI0
aI0
aa(lp42
I9
aI0
aI0
aI0
aa(lp43
I26
aI0
aI0
aI0
aa(lp44
I35
aI0
aI0
aI0
aa(lp45
I28
aI0
aI0
aI0
aa(lp46
I51
aI0
aI0
aI0
aa(lp47
I33
aI0
aI0
aI0
aa(lp48
I8
aI0
aI0
aI0
aa(lp49
I37
aI0
aI0
aI0
aa(lp50
I27
aI0
aI0
aI0
aa(lp51
I34
aI0
aI0
aI0
aa(lp52
I30
aI0
aI0
aI0
aa(lp53
I40
aI0
aI0
aI0
aa(lp54
I16
aI0
aI0
aI0
aa(lp55
I38
aI0
aI0
aI0
aa(lp56
I46
aI0
aI0
aI0
aa(lp57
I20
aI0
aI0
aI0
aa(lp58
I29
aI0
aI0
aI0
aa(lp59
I22
aI0
aI0
aI0
aa(lp60
I23
aI0
aI0
aI0
aa(lp61
I33
aI0
aI0
aI0
aa(lp62
I25
aI0
aI0
aI0
aa(lp63
I21
aI0
aI0
aI0
aa.